(lp0
(lp1
I1
aI1
aI0
aI0
aI2
aI2
aI0
aI2
aI2
aI0
aI0
aI2
aI2
aI2
aI0
aI2
aI0
aI2
aI0
aI0
aI2
aI2
aI0
aI1
aI1
aI2
aI0
aI0
aI2
aI0
aI1
aI0
aI2
aI0
aI2
aI1
aI0
aI2
aI1
aI1
aI1
aI0
aI0
aI0
aI2
aI0
aI1
aI2
aI2
aI0
aI2
aI0
aI0
aI0
aI1
aI2
aI2
aI0
aI2
aI2
aI0
aI0
aI0
aI0
aI0
aI0
aI2
aI0
aI2
aI2
aI0
aI2
aI1
aI1
aI1
aI1
aI2
aI1
aI2
aI0
aI0
aI2
aI0
aI0
aI2
aI1
aI2
aI0
aI0
aI2
aI0
aI2
aI0
aI2
aI0
aI2
aI0
aI2
aI0
aI2
aI0
aI2
aI0
aI1
aI1
aI0
aI2
aI0
aI0
aI2
aI0
aI0
aI2
aI0
aI1
aI1
aI1
aI1
aI1
aI0
aI0
aI2
aI0
aI0
aI0
aa(lp2
I1
aI1
aI0
aI2
aI0
aI2
aI0
aI0
aI0
aI2
aI0
aI2
aI0
aI0
aI0
aI2
aI2
aI1
aI1
aI1
aI1
aI0
aI0
aI2
aI0
aI2
aI0
aI2
aI2
aI0
aI2
aI1
aI0
aI0
aI2
aI0
aI0
aI0
aI0
aI2
aI0
aI0
aI0
aI0
aI2
aI0
aI2
aI0
aI0
aI2
aI0
aI2
aI0
aI0
aI2
aI0
aI2
aI2
aI0
aI2
aI0
aI2
aI0
aI0
aI0
aI0
aI1
aI1
aI0
aI2
aI0
aI2
aI0
aI2
aI2
aI0
aI1
aI0
aI2
aI0
aI0
aI2
aI0
aI0
aI0
aI2
aI2
aI0
aI0
aI2
aI1
aI1
aI0
aI2
aI2
aI0
aI2
aI0
aI0
aI0
aI2
aI2
aI0
aI2
aI0
aI2
aI0
aI1
aI0
aI2
aI0
aI0
aI2
aI0
aI1
aI2
aI0
aI2
aI0
aI2
aI0
aI2
aI0
aI2
aI0
aI2
aI0
aI0
aI0
aI2
aI0
aI2
aI0
aI2
aI0
aI2
aI0
aI2
aI0
aI2
aI0
aI2
aI1
aI1
aI1
aI1
aI1
aI2
aI0
aI2
aI0
aI0
aI0
aI2
aI2
aI0
aI0
aI2
aI2
aI0
aI1
aI0
aI0
aI2
aI1
aI0
aI0
aI0
aI2
aI0
aI0
aI0
aI0
aI2
aI2
aI0
aI2
aI0
aa(lp3
I2
aI0
aI0
aI0
aI0
aI2
aI0
aI1
aI1
aI1
aI0
aI1
aI1
aI0
aI2
aI0
aI0
aI2
aI2
aI0
aI2
aI0
aI0
aI0
aI0
aI0
aI2
aI0
aI2
aI0
aI0
aI2
aI0
aI2
aI0
aI1
aI1
aI0
aI2
aI0
aI2
aI2
aI0
aI2
aI0
aI1
aI1
aI1
aI1
aI1
aI0
aI1
aI1
aI0
aI0
aI0
aI2
aI0
aI2
aI0
aI1
aI2
aI0
aI2
aI0
aI2
aI0
aI0
aI2
aI0
aI0
aI2
aI2
aI1
aI1
aI1
aI1
aI0
aI1
aI1
aI1
aI0
aI0
aI2
aI0
aI2
aI0
aI2
aI0
aI2
aI0
aI2
aI0
aI1
aI1
aI1
aI1
aI1
aI1
aI1
aI1
aI1
aI1
aI1
aI1
aI1
aI2
aI0
aI0
aI0
aI2
aI2
aI0
aI2
aI0
aI2
aI0
aI2
aI2
aI2
aI2
aI0
aI2
aI2
aI0
aI0
aI2
aI0
aI2
aI0
aI2
aI0
aI0
aI2
aI0
aI2
aI0
aI2
aI0
aI1
aI1
aI0
aI2
aI0
aI0
aI2
aI0
aI0
aI0
aI2
aI0
aI0
aI2
aI2
aI2
aI0
aI2
aI0
aa(lp4
I2
aI2
aI0
aI2
aI2
aI0
aI2
aI2
aI0
aI2
aI0
aI0
aI0
aI2
aI0
aI0
aI1
aI1
aI2
aI2
aI0
aI1
aI2
aI0
aI0
aI1
aI0
aI2
aI0
aI2
aI0
aI2
aI2
aI0
aI0
aI2
aI2
aI1
aI0
aI2
aI0
aI0
aI2
aI0
aI2
aI0
aI0
aI0
aI2
aI0
aI0
aI1
aI1
aI0
aI2
aI0
aI0
aI1
aI1
aI2
aI0
aI2
aI0
aI0
aI2
aI0
aI0
aI0
aI0
aI0
aI1
aI0
aI2
aI0
aI2
aI0
aI2
aI0
aI2
aI0
aI0
aI0
aI2
aI0
aI2
aI0
aI0
aI0
aI2
aI0
aI2
aI2
aI1
aI0
aI2
aI2
aI0
aI0
aI1
aI1
aI0
aI2
aI1
aI1
aI0
aI2
aI2
aI0
aI0
aI2
aI0
aI0
aI0
aI2
aI1
aI0
aI0
aI2
aI0
aI0
aI0
aI2
aI2
aI0
aI2
aI2
aI0
aI0
aI0
aI1
aI1
aI0
aI0
aI0
aI2
aI1
aI1
aI1
aI1
aI1
aI1
aI0
aI2
aI0
aI0
aI0
aI0
aI0
aI2
aI0
aI1
aI1
aI0
aI0
aI0
aI2
aI0
aI1
aI0
aI2
aI0
aI2
aI0
aI1
aI0
aI0
aI0
aI2
aI0
aI2
aI0
aI2
aI1
aI0
aI0
aI2
aI0
aI0
aI2
aI0
aI0
aI2
aI2
aI1
aa(lp5
I2
aI0
aI2
aI0
aI2
aI0
aI2
aI0
aI2
aI0
aI1
aI0
aI2
aI0
aI0
aI0
aI1
aI0
aI0
aI2
aI0
aI2
aI0
aI2
aI0
aI1
aI0
aI2
aI2
aI2
aI0
aI2
aI2
aI0
aI1
aI1
aI1
aI1
aI0
aI0
aI0
aI2
aI2
aI0
aI0
aI2
aI0
aI2
aI0
aI2
aI0
aI2
aI0
aI2
aI0
aI2
aI0
aI2
aI0
aI0
aI0
aI2
aI0
aI2
aI2
aI1
aI1
aI0
aI1
aI1
aI1
aI1
aI0
aI0
aI2
aI0
aI0
aI0
aI0
aI2
aI1
aI1
aI1
aI0
aI2
aI0
aI2
aI0
aI2
aI0
aI1
aI1
aI1
aI0
aI0
aI0
aI2
aI0
aI1
aI1
aI1
aI1
aI0
aI0
aI2
aI1
aI0
aI2
aI0
aI2
aI0
aI2
aI0
aI2
aI0
aI2
aI0
aI2
aI0
aI2
aI0
aI0
aI2
aI0
aI2
aI2
aI0
aI2
aI0
aI0
aI0
aI2
aI0
aI0
aI0
aI0
aa.