(lp0
(lp1
I2
aI2
aI0
aI2
aI0
aI0
aI0
aI2
aI2
aI0
aI0
aI2
aI1
aI2
aI2
aI0
aI0
aI2
aI0
aI2
aI0
aI2
aI0
aI0
aI0
aI1
aI0
aI2
aI0
aI0
aI0
aI2
aI0
aI2
aI0
aI0
aI0
aI2
aI1
aI1
aI0
aI1
aI2
aI0
aI0
aI0
aI0
aI1
aI1
aI1
aI1
aI1
aI1
aI1
aI0
aI0
aI0
aI2
aI0
aI2
aI0
aI0
aI0
aa(lp2
I1
aI1
aI1
aI1
aI0
aI2
aI0
aI2
aI0
aI0
aI2
aI2
aI0
aI0
aI2
aI0
aI0
aI2
aI0
aI0
aI0
aI2
aI0
aI0
aI2
aI0
aI0
aI0
aI2
aI0
aI0
aI0
aI0
aI2
aI0
aI2
aI0
aI0
aI2
aI0
aI1
aI0
aI2
aI2
aI0
aI0
aI0
aI0
aI0
aI2
aI0
aI2
aI0
aI0
aI1
aI0
aI0
aI0
aI0
aI0
aI0
aa(lp3
I2
aI0
aI0
aI1
aI2
aI0
aI2
aI2
aI0
aI2
aI0
aI0
aI2
aI0
aI2
aI2
aI0
aI2
aI0
aI2
aI0
aI1
aI0
aI0
aI0
aI0
aI2
aI0
aI0
aI0
aI2
aI0
aI2
aI0
aI2
aI0
aI2
aI0
aI2
aI0
aI2
aI0
aI2
aI1
aI2
aI0
aI0
aI2
aI1
aI1
aI1
aI1
aI0
aI2
aI0
aI2
aI1
aI0
aI0
aI2
aI0
aI2
aI0
aI2
aI0
aa(lp4
I1
aI0
aI0
aI2
aI0
aI2
aI1
aI0
aI2
aI0
aI2
aI0
aI0
aI0
aI2
aI2
aI0
aI2
aI0
aI2
aI2
aI2
aI0
aI0
aI0
aI1
aI0
aI0
aI1
aI0
aI2
aI0
aI0
aI2
aI0
aI2
aI2
aI0
aI2
aI2
aI2
aI0
aI2
aI0
aI0
aI2
aI0
aI1
aI1
aI1
aI0
aI0
aI1
aI0
aI0
aI2
aI1
aI0
aI2
aI0
aI2
aI0
aI2
aI0
aI0
aa(lp5
I2
aI0
aI0
aI2
aI0
aI2
aI0
aI0
aI1
aI1
aI0
aI2
aI2
aI1
aI0
aI2
aI0
aI0
aI2
aI0
aI0
aI0
aI2
aI2
aI0
aI2
aI0
aI2
aI0
aI2
aI1
aI1
aI1
aI1
aI1
aI0
aI0
aI2
aI2
aI2
aI0
aI2
aI2
aI0
aI0
aI2
aI2
aI1
aI0
aI2
aa(lp6
I2
aI1
aI1
aI2
aI0
aI2
aI0
aI1
aI0
aI0
aI0
aI0
aI2
aI2
aI0
aI0
aI2
aI0
aI1
aI0
aI0
aI0
aI2
aI2
aI0
aI2
aI0
aI0
aI2
aI1
aI1
aI0
aI2
aI0
aI2
aI2
aI0
aI0
aI2
aI2
aI1
aI2
aI0
aI0
aI2
aI0
aI2
aI0
aI1
aI0
aI0
aI2
aI0
aI0
aI1
aI0
aI0
aI2
aa(lp7
I1
aI0
aI2
aI2
aI0
aI2
aI0
aI0
aI1
aI0
aI2
aI0
aI2
aI2
aI0
aI0
aI2
aI0
aI0
aI2
aI2
aI1
aI0
aI2
aI0
aI0
aI2
aI0
aI2
aI2
aI0
aI0
aI0
aI0
aI0
aI2
aI2
aI0
aI2
aI0
aI0
aI2
aI0
aI0
aI0
aI2
aI0
aI0
aI0
aI2
aI0
aI0
aa(lp8
I2
aI0
aI2
aI0
aI2
aI0
aI0
aI2
aI2
aI0
aI0
aI2
aI0
aI2
aI0
aI1
aI0
aI0
aI2
aI0
aI2
aI0
aI2
aI0
aI0
aI0
aI0
aI1
aI1
aI1
aI1
aI1
aI0
aI2
aI2
aI0
aI2
aI2
aI0
aI1
aI1
aI1
aI0
aI0
aI0
aI0
aI2
aI2
aI0
aI2
aI0
aI0
aI2
aI0
aI0
aI2
aI0
aI2
aI0
aa(lp9
I2
aI0
aI0
aI0
aI0
aI0
aI2
aI1
aI2
aI0
aI0
aI2
aI2
aI0
aI2
aI0
aI2
aI0
aI0
aI2
aI1
aI1
aI1
aI1
aI1
aI1
aI1
aI2
aI0
aI2
aI0
aI0
aI2
aI0
aI1
aI0
aI0
aI2
aI2
aI2
aI0
aI2
aI2
aI0
aI2
aI1
aI0
aI0
aI2
aI0
aI1
aI0
aI2
aI0
aI2
aI2
aI0
aI2
aI0
aa(lp10
I0
aI0
aI2
aI2
aI0
aI1
aI1
aI0
aI0
aI0
aI0
aI0
aI0
aI2
aI1
aI1
aI1
aI1
aI0
aI0
aI1
aI0
aI1
aI1
aI1
aI1
aI1
aI2
aI0
aI0
aI2
aI1
aI0
aI0
aI2
aI0
aI0
aI2
aI0
aI0
aI2
aI0
aI1
aI0
aI0
aI2
aI0
aI1
aI1
aI0
aI2
aI0
aI2
aI0
aI2
aI0
aI2
aI1
aI1
aI1
aI2
aI0
aI2
aa(lp11
I1
aI1
aI1
aI1
aI2
aI0
aI0
aI2
aI0
aI2
aI0
aI0
aI0
aI2
aI0
aI0
aI0
aI1
aI1
aI0
aI2
aI0
aI2
aI0
aI0
aI2
aI2
aI0
aI2
aI1
aI0
aI0
aI0
aI2
aI1
aI0
aI2
aI1
aI1
aI1
aI1
aI1
aI0
aI0
aI2
aI0
aI0
aI0
aI2
aI0
aI0
aI2
aI0
aI0
aI0
aI2
aI2
aI0
aI2
aI1
aI2
aI0
aI2
aI0
aI2
aI0
aI2
aI0
aa(lp12
I2
aI0
aI0
aI2
aI0
aI2
aI1
aI0
aI2
aI1
aI1
aI0
aI2
aI0
aI0
aI0
aI2
aI0
aI2
aI0
aI2
aI0
aI0
aI2
aI0
aI1
aI1
aI0
aI0
aI0
aI2
aI2
aI0
aI0
aI2
aI1
aI1
aI0
aI2
aI0
aI0
aI2
aI0
aI0
aI1
aI1
aI1
aI0
aI2
aI1
aa(lp13
I1
aI1
aI1
aI0
aI0
aI2
aI0
aI0
aI0
aI0
aI0
aI0
aI2
aI0
aI2
aI0
aI2
aI0
aI2
aI0
aI0
aI0
aI2
aI1
aI1
aI0
aI2
aI0
aI2
aI0
aI0
aI2
aI0
aI1
aI1
aI1
aI1
aI0
aI2
aI2
aI1
aI0
aI0
aI0
aI0
aI0
aI0
aI2
aI0
aI2
aI0
aI2
aI0
aI1
aI0
aI1
aI1
aI2
aI0
aI0
aI0
aI2
aI0
aI2
aI2
aI0
aI0
aI2
aa(lp14
I1
aI0
aI2
aI0
aI2
aI2
aI2
aI2
aI0
aI2
aI0
aI1
aI0
aI1
aI1
aI0
aI2
aI0
aI2
aI0
aI2
aI0
aI0
aI2
aI0
aI2
aI0
aI1
aI1
aI0
aI2
aI2
aI0
aI0
aI0
aI0
aI2
aI0
aI2
aI0
aI2
aI2
aI0
aI2
aI0
aI2
aI1
aI0
aI0
aI2
aI2
aI0
aI0
aI1
aI1
aI1
aI0
aI0
aI0
aI2
aI0
aI2
aI0
aa(lp15
I2
aI0
aI0
aI1
aI1
aI2
aI0
aI2
aI0
aI1
aI2
aI1
aI0
aI0
aI2
aI1
aI0
aI2
aI0
aI2
aI0
aI0
aI2
aI0
aI2
aI0
aI0
aI0
aI0
aI2
aI0
aI2
aI0
aI2
aI0
aI2
aI0
aI2
aI0
aI2
aI0
aI0
aI2
aI0
aI1
aI2
aI0
aI2
aI0
aI1
aI0
aI2
aI0
aI2
aI2
aI1
aI1
aa(lp16
I0
aI1
aI0
aI0
aI2
aI0
aI0
aI0
aI0
aI2
aI2
aI2
aI0
aI0
aI2
aI0
aI0
aI0
aI0
aI2
aI0
aI0
aI0
aI0
aI0
aI0
aI2
aI0
aI2
aI0
aI2
aI2
aI0
aI0
aI2
aI0
aI2
aI0
aI1
aI0
aI0
aI2
aI0
aI2
aI1
aI1
aI0
aI1
aI0
aI0
aI0
aa(lp17
I1
aI0
aI2
aI0
aI0
aI0
aI0
aI2
aI2
aI2
aI0
aI2
aI1
aI1
aI1
aI0
aI1
aI0
aI2
aI0
aI1
aI0
aI2
aI0
aI2
aI0
aI2
aI2
aI0
aI2
aI0
aI0
aI2
aI0
aI0
aI0
aI2
aI0
aI2
aI0
aI0
aI2
aI2
aI0
aI0
aI0
aI0
aI2
aI2
aI0
aI2
aI0
aI0
aI0
aI2
aI0
aI0
aI2
aI0
aI2
aI2
aI2
aI0
aI2
aI1
aI0
aI2
aa(lp18
I1
aI1
aI0
aI2
aI2
aI0
aI1
aI1
aI1
aI1
aI1
aI0
aI2
aI0
aI0
aI0
aI2
aI0
aI2
aI0
aI2
aI0
aI0
aI0
aI0
aI0
aI0
aI0
aI0
aI0
aI0
aI0
aI2
aI1
aI0
aI2
aI0
aI0
aI2
aI0
aI2
aI0
aI2
aI2
aI0
aI0
aI0
aI2
aI1
aI0
aI0
aI2
aI1
aI1
aI0
aI2
aI0
aI0
aI2
aI0
aI0
aI0
aI0
aI0
aI0
aI2
aI0
aI1
aI0
aa(lp19
I1
aI1
aI1
aI1
aI1
aI1
aI0
aI0
aI2
aI2
aI2
aI0
aI2
aI0
aI0
aI0
aI2
aI0
aI2
aI0
aI1
aI1
aI1
aI0
aI2
aI0
aI0
aI2
aI2
aI2
aI2
aI0
aI2
aI0
aI2
aI1
aI0
aI0
aI2
aI0
aI0
aI2
aI0
aI2
aI0
aI2
aI0
aI0
aI2
aI0
aI0
aI2
aI1
aI2
aI0
aI2
aI2
aI0
aI1
aI0
aI0
aa(lp20
I0
aI1
aI0
aI2
aI2
aI0
aI0
aI2
aI0
aI2
aI0
aI0
aI1
aI2
aI0
aI2
aI2
aI1
aI1
aI0
aI0
aI0
aI0
aI0
aI2
aI0
aI2
aI0
aI0
aI1
aI1
aI0
aI0
aI0
aI0
aI2
aI0
aI0
aI2
aI0
aI0
aI0
aI2
aI0
aI2
aI0
aI0
aI2
aI0
aI2
aI0
aI1
aI1
aI0
aI2
aI0
aI1
aI0
aI2
aa.