(lp0
cnumpy.core.multiarray
_reconstruct
p1
(cnumpy
ndarray
p2
(I0
tp3
S'b'
p4
tp5
Rp6
(I1
(I3
tp7
cnumpy
dtype
p8
(S'f8'
p9
I0
I1
tp10
Rp11
(I3
S'<'
p12
NNNI-1
I-1
I0
tp13
bI00
S'\xb7\x0c\x86A\xc0\xf7\xe3?G\x18\x99\xf9\xaej\xd3\xbf\xa2R\xb7,Q\x0b\xe7?'
p14
tp15
bag1
(g2
(I0
tp16
g4
tp17
Rp18
(I1
(I1
tp19
g11
I00
S'\x8aQ\xb9\xb9\xaa.)@'
p20
tp21
ba.