(lp0
cnumpy.core.multiarray
_reconstruct
p1
(cnumpy
ndarray
p2
(I0
tp3
S'b'
p4
tp5
Rp6
(I1
(I3
tp7
cnumpy
dtype
p8
(S'f8'
p9
I0
I1
tp10
Rp11
(I3
S'<'
p12
NNNI-1
I-1
I0
tp13
bI00
S'3\xf3.5\xa8\x18\xec?\x8a\xeb\xe3\xeb\xfd\x9f\xde?[\x1f8\x1ct\x9c\x86?'
p14
tp15
bag1
(g2
(I0
tp16
g4
tp17
Rp18
(I1
(I1
tp19
g11
I00
S'5\x9f\x1f\xb7\x96\x8fJ\xc0'
p20
tp21
ba.